target datalayout = "e-m:e-p270:32:32-p271:32:32-p272:64:64-i64:64-i128:128-f80:128-n8:16:32:64-S128"
target triple = "x86_64-pc-linux-gnu"

%struct.AVCodecContext = type { ptr, i32, i32, ptr, i32, i32, ptr, ptr, ptr, i64, i32, i32, ptr, i32, %struct.AVRational, %struct.AVRational, %struct.AVRational, i32, i32, i32, i32, i32, %struct.AVRational, i32, i32, i32, i32, i32, i32, i32, i32, i32, i32, i32, ptr, ptr, i32, float, float, float, float, float, float, float, float, float, i32, i32, i32, i32, i32, i32, i32, i32, i32, i32, i32, i32, ptr, ptr, ptr, i32, i32, i32, i32, i32, i32, i32, i32, i32, i32, %struct.AVChannelLayout, i32, i32, i32, i32, i32, i32, i32, i32, ptr, i32, i32, i32, float, float, i32, i32, i32, i32, i32, ptr, i64, i64, float, float, i32, i32, ptr, ptr, i32, i32, i32, i32, i32, ptr, ptr, ptr, ptr, i32, i32, [8 x i64], i32, i32, i32, i32, i32, i32, i32, ptr, ptr, i32, i32, i32, i32, i32, i32, i32, i32, i32, i32, ptr, ptr, i32, i32, ptr, ptr, ptr, ptr, i32, i32, i64, i32, i32, i64, ptr, i64, ptr, i32, ptr, i32 }
%struct.AVRational = type { i32, i32 }
%struct.AVChannelLayout = type { i32, i32, %union.anon.0, ptr }
%union.anon.0 = type { i64 }
%struct.DVDecContext = type { ptr, ptr, ptr, [2 x [64 x i8]], [1296 x %struct.DVwork_chunk], [8192 x i32], [2 x ptr], %struct.IDCTDSPContext }
%struct.DVwork_chunk = type { i16, [5 x i16] }
%struct.IDCTDSPContext = type { ptr, ptr, ptr, ptr, ptr, ptr, [64 x i8], i32, i32 }

@dvvideo_decode_init.init_static_once = internal global i32 0, align 4
@ff_zigzag_direct = external constant [64 x i8], align 16
@ff_dv_zigzag248_direct = external constant [64 x i8], align 16

; Function Attrs: cold nounwind optsize uwtable
define internal i32 @dvvideo_decode_init(ptr noundef %0) #0 {
  %2 = alloca ptr, align 8
  %3 = alloca ptr, align 8
  %4 = alloca i32, align 4
  %5 = alloca i32, align 4
  store ptr %0, ptr %2, align 8, !tbaa !4
  call void @llvm.lifetime.start.p0(i64 8, ptr %3) #11
  %6 = load ptr, ptr %2, align 8, !tbaa !4
  %7 = getelementptr inbounds nuw %struct.AVCodecContext, ptr %6, i32 0, i32 6
  %8 = load ptr, ptr %7, align 8, !tbaa !9
  store ptr %8, ptr %3, align 8, !tbaa !29
  call void @llvm.lifetime.start.p0(i64 4, ptr %4) #11
  %9 = load ptr, ptr %2, align 8, !tbaa !4
  %10 = getelementptr inbounds nuw %struct.AVCodecContext, ptr %9, i32 0, i32 29
  store i32 3, ptr %10, align 8, !tbaa !31
  %11 = load ptr, ptr %3, align 8, !tbaa !29
  %12 = getelementptr inbounds nuw %struct.DVDecContext, ptr %11, i32 0, i32 7
  %13 = load ptr, ptr %2, align 8, !tbaa !4
  call void @ff_idctdsp_init(ptr noundef %12, ptr noundef %13)
  store i32 0, ptr %4, align 4, !tbaa !32
  br label %14

14:                                               ; preds = %34, %1
  %15 = load i32, ptr %4, align 4, !tbaa !32
  %16 = icmp slt i32 %15, 64
  br i1 %16, label %17, label %37

17:                                               ; preds = %14
  %18 = load ptr, ptr %3, align 8, !tbaa !29
  %19 = getelementptr inbounds nuw %struct.DVDecContext, ptr %18, i32 0, i32 7
  %20 = getelementptr inbounds nuw %struct.IDCTDSPContext, ptr %19, i32 0, i32 6
  %21 = load i32, ptr %4, align 4, !tbaa !32
  %22 = sext i32 %21 to i64
  %23 = getelementptr inbounds [64 x i8], ptr @ff_zigzag_direct, i64 0, i64 %22
  %24 = load i8, ptr %23, align 1, !tbaa !33
  %25 = zext i8 %24 to i64
  %26 = getelementptr inbounds nuw [64 x i8], ptr %20, i64 0, i64 %25
  %27 = load i8, ptr %26, align 1, !tbaa !33
  %28 = load ptr, ptr %3, align 8, !tbaa !29
  %29 = getelementptr inbounds nuw %struct.DVDecContext, ptr %28, i32 0, i32 3
  %30 = getelementptr inbounds [2 x [64 x i8]], ptr %29, i64 0, i64 0
  %31 = load i32, ptr %4, align 4, !tbaa !32
  %32 = sext i32 %31 to i64
  %33 = getelementptr inbounds [64 x i8], ptr %30, i64 0, i64 %32
  store i8 %27, ptr %33, align 1, !tbaa !33
  br label %34

34:                                               ; preds = %17
  %35 = load i32, ptr %4, align 4, !tbaa !32
  %36 = add nsw i32 %35, 1
  store i32 %36, ptr %4, align 4, !tbaa !32
  br label %14, !llvm.loop !34

37:                                               ; preds = %14
  %38 = load ptr, ptr %2, align 8, !tbaa !4
  %39 = getelementptr inbounds nuw %struct.AVCodecContext, ptr %38, i32 0, i32 130
  %40 = load i32, ptr %39, align 4, !tbaa !36
  %41 = icmp ne i32 %40, 0
  br i1 %41, label %42, label %78

42:                                               ; preds = %37
  store i32 0, ptr %4, align 4, !tbaa !32
  br label %43

43:                                               ; preds = %74, %42
  %44 = load i32, ptr %4, align 4, !tbaa !32
  %45 = icmp slt i32 %44, 64
  br i1 %45, label %46, label %77

46:                                               ; preds = %43
  call void @llvm.lifetime.start.p0(i64 4, ptr %5) #11
  %47 = load i32, ptr %4, align 4, !tbaa !32
  %48 = sext i32 %47 to i64
  %49 = getelementptr inbounds [64 x i8], ptr @ff_dv_zigzag248_direct, i64 0, i64 %48
  %50 = load i8, ptr %49, align 1, !tbaa !33
  %51 = zext i8 %50 to i32
  store i32 %51, ptr %5, align 4, !tbaa !32
  %52 = load ptr, ptr %3, align 8, !tbaa !29
  %53 = getelementptr inbounds nuw %struct.DVDecContext, ptr %52, i32 0, i32 7
  %54 = getelementptr inbounds nuw %struct.IDCTDSPContext, ptr %53, i32 0, i32 6
  %55 = load i32, ptr %5, align 4, !tbaa !32
  %56 = and i32 %55, 7
  %57 = load i32, ptr %5, align 4, !tbaa !32
  %58 = and i32 %57, 8
  %59 = mul nsw i32 %58, 4
  %60 = add nsw i32 %56, %59
  %61 = load i32, ptr %5, align 4, !tbaa !32
  %62 = and i32 %61, 48
  %63 = sdiv i32 %62, 2
  %64 = add nsw i32 %60, %63
  %65 = sext i32 %64 to i64
  %66 = getelementptr inbounds [64 x i8], ptr %54, i64 0, i64 %65
  %67 = load i8, ptr %66, align 1, !tbaa !33
  %68 = load ptr, ptr %3, align 8, !tbaa !29
  %69 = getelementptr inbounds nuw %struct.DVDecContext, ptr %68, i32 0, i32 3
  %70 = getelementptr inbounds [2 x [64 x i8]], ptr %69, i64 0, i64 1
  %71 = load i32, ptr %4, align 4, !tbaa !32
  %72 = sext i32 %71 to i64
  %73 = getelementptr inbounds [64 x i8], ptr %70, i64 0, i64 %72
  store i8 %67, ptr %73, align 1, !tbaa !33
  call void @llvm.lifetime.end.p0(i64 4, ptr %5) #11
  br label %74

74:                                               ; preds = %46
  %75 = load i32, ptr %4, align 4, !tbaa !32
  %76 = add nsw i32 %75, 1
  store i32 %76, ptr %4, align 4, !tbaa !32
  br label %43, !llvm.loop !37

77:                                               ; preds = %43
  br label %83

78:                                               ; preds = %37
  %79 = load ptr, ptr %3, align 8, !tbaa !29
  %80 = getelementptr inbounds nuw %struct.DVDecContext, ptr %79, i32 0, i32 3
  %81 = getelementptr inbounds [2 x [64 x i8]], ptr %80, i64 0, i64 1
  %82 = getelementptr inbounds [64 x i8], ptr %81, i64 0, i64 0
  call void @llvm.memcpy.p0.p0.i64(ptr align 8 %82, ptr align 16 @ff_dv_zigzag248_direct, i64 64, i1 false)
  br label %83

83:                                               ; preds = %78, %77
  %84 = load ptr, ptr %3, align 8, !tbaa !29
  %85 = getelementptr inbounds nuw %struct.DVDecContext, ptr %84, i32 0, i32 7
  %86 = getelementptr inbounds nuw %struct.IDCTDSPContext, ptr %85, i32 0, i32 4
  %87 = load ptr, ptr %86, align 8, !tbaa !38
  %88 = load ptr, ptr %3, align 8, !tbaa !29
  %89 = getelementptr inbounds nuw %struct.DVDecContext, ptr %88, i32 0, i32 6
  %90 = getelementptr inbounds [2 x ptr], ptr %89, i64 0, i64 0
  store ptr %87, ptr %90, align 8, !tbaa !43
  %91 = load ptr, ptr %3, align 8, !tbaa !29
  %92 = getelementptr inbounds nuw %struct.DVDecContext, ptr %91, i32 0, i32 6
  %93 = getelementptr inbounds [2 x ptr], ptr %92, i64 0, i64 1
  store ptr @ff_simple_idct248_put, ptr %93, align 8, !tbaa !43
  %94 = call i32 @pthread_once(ptr noundef @dvvideo_decode_init.init_static_once, ptr noundef @dv_init_static)
  call void @llvm.lifetime.end.p0(i64 4, ptr %4) #11
  call void @llvm.lifetime.end.p0(i64 8, ptr %3) #11
  ret i32 0
}