; Function Attrs: cold nounwind optsize uwtable
define internal noundef i32 @dvvideo_decode_init(ptr noundef initializes((160, 164)) %0) #0 {
  %2 = getelementptr inbounds nuw i8, ptr %0, i64 32
  %3 = load ptr, ptr %2, align 8, !tbaa !4
  %4 = getelementptr inbounds nuw i8, ptr %0, i64 160
  store i32 3, ptr %4, align 8, !tbaa !27
  %5 = getelementptr inbounds nuw i8, ptr %3, i64 48488
  tail call void @ff_idctdsp_init(ptr noundef nonnull %5, ptr noundef %0) #10
  %6 = getelementptr inbounds nuw i8, ptr %3, i64 48536
  %7 = getelementptr inbounds nuw i8, ptr %3, i64 24
  br label %8

8:                                                ; preds = %1, %8
  %indvars.iv = phi i64 [ 0, %1 ], [ %indvars.iv.next, %8 ]
  %9 = getelementptr inbounds nuw [64 x i8], ptr @ff_zigzag_direct, i64 0, i64 %indvars.iv
  %10 = load i8, ptr %9, align 1, !tbaa !28
  %11 = zext i8 %10 to i64
  %12 = getelementptr inbounds nuw [64 x i8], ptr %6, i64 0, i64 %11
  %13 = load i8, ptr %12, align 1, !tbaa !28
  %14 = getelementptr inbounds nuw [64 x i8], ptr %7, i64 0, i64 %indvars.iv
  store i8 %13, ptr %14, align 1, !tbaa !28
  %indvars.iv.next = add nuw nsw i64 %indvars.iv, 1
  %exitcond.not = icmp eq i64 %indvars.iv.next, 64
  br i1 %exitcond.not, label %15, label %8, !llvm.loop !29

15:                                               ; preds = %8
  %16 = getelementptr inbounds nuw i8, ptr %0, i64 724
  %17 = load i32, ptr %16, align 4, !tbaa !31
  %.not = icmp eq i32 %17, 0
  %18 = getelementptr inbounds nuw i8, ptr %3, i64 88
  br i1 %.not, label %33, label %.preheader

.preheader:                                       ; preds = %15, %.preheader
  %indvars.iv26 = phi i64 [ %indvars.iv.next27, %.preheader ], [ 0, %15 ]
  %19 = getelementptr inbounds nuw [64 x i8], ptr @ff_dv_zigzag248_direct, i64 0, i64 %indvars.iv26
  %20 = load i8, ptr %19, align 1, !tbaa !28
  %21 = zext i8 %20 to i32
  %22 = and i32 %21, 7
  %23 = shl nuw nsw i32 %21, 2
  %24 = and i32 %23, 32
  %25 = or disjoint i32 %24, %22
  %26 = lshr i32 %21, 1
  %27 = and i32 %26, 24
  %28 = or disjoint i32 %25, %27
  %29 = zext nneg i32 %28 to i64
  %30 = getelementptr inbounds nuw [64 x i8], ptr %6, i64 0, i64 %29
  %31 = load i8, ptr %30, align 1, !tbaa !28
  %32 = getelementptr inbounds nuw [64 x i8], ptr %18, i64 0, i64 %indvars.iv26
  store i8 %31, ptr %32, align 1, !tbaa !28
  %indvars.iv.next27 = add nuw nsw i64 %indvars.iv26, 1
  %exitcond29.not = icmp eq i64 %indvars.iv.next27, 64
  br i1 %exitcond29.not, label %.loopexit, label %.preheader, !llvm.loop !32

33:                                               ; preds = %15
  tail call void @llvm.memcpy.p0.p0.i64(ptr noundef nonnull align 8 dereferenceable(64) %18, ptr noundef nonnull align 16 dereferenceable(64) @ff_dv_zigzag248_direct, i64 64, i1 false)
  br label %.loopexit

.loopexit:                                        ; preds = %.preheader, %33
  %34 = getelementptr inbounds nuw i8, ptr %3, i64 48520
  %35 = load ptr, ptr %34, align 8, !tbaa !33
  %36 = getelementptr inbounds nuw i8, ptr %3, i64 48472
  store ptr %35, ptr %36, align 8, !tbaa !38
  %37 = getelementptr inbounds nuw i8, ptr %3, i64 48480
  store ptr @ff_simple_idct248_put, ptr %37, align 8, !tbaa !38
  %38 = tail call i32 @pthread_once(ptr noundef nonnull @dvvideo_decode_init.init_static_once, ptr noundef nonnull @dv_init_static) #10
  ret i32 0
}